target datalayout = "e-m:e-p270:32:32-p271:32:32-p272:64:64-i64:64-i128:128-f80:128-n8:16:32:64-S128"
target triple = "x86_64-pc-linux-gnu"

%struct.event = type { %struct.event_callback, %union.anon.0, i32, i16, i16, ptr, %union.anon.2, %struct.timeval }
%struct.event_callback = type { %struct.anon, i16, i8, i8, %union.anon, ptr }
%struct.anon = type { ptr, ptr }
%union.anon = type { ptr }
%union.anon.0 = type { %struct.anon.1 }
%struct.anon.1 = type { ptr, ptr }
%union.anon.2 = type { %struct.anon.3 }
%struct.anon.3 = type { %struct.anon.4, %struct.timeval }
%struct.anon.4 = type { ptr, ptr }
%struct.timeval = type { i64, i64 }
%struct.sockaddr_storage = type { i16, [118 x i8], i64 }
%struct.evdns_base = type { ptr, ptr, ptr, i32, ptr, i32, i32, i32, i32, %struct.timeval, i32, i32, i32, i32, i16, %struct.timeval, i16, %struct.timeval, %struct.sockaddr_storage, i32, %struct.timeval, i32, i32, i32, i32, i32, i32, ptr, %struct.hosts_list, %struct.evdns_tree, ptr, i32, i32, i32, i32 }
%struct.hosts_list = type { ptr, ptr }
%struct.evdns_tree = type { ptr }
%struct.request = type { ptr, i16, i8, i32, i32, i32, ptr, ptr, ptr, %struct.event, i16, i8, ptr, ptr, ptr }

@evthread_lock_debugging_enabled_ = external global i32, align 4

; Function Attrs: nounwind uwtable
define internal void @evdns_request_insert(ptr noundef %0, ptr noundef %1) #0 {
  %3 = alloca ptr, align 8
  %4 = alloca ptr, align 8
  store ptr %0, ptr %3, align 8
  store ptr %1, ptr %4, align 8
  br label %5

5:                                                ; preds = %2
  %6 = load ptr, ptr %3, align 8
  %7 = getelementptr inbounds nuw %struct.request, ptr %6, i32 0, i32 13
  %8 = load ptr, ptr %7, align 8
  %9 = getelementptr inbounds nuw %struct.evdns_base, ptr %8, i32 0, i32 30
  %10 = load ptr, ptr %9, align 8
  %11 = icmp ne ptr %10, null
  br i1 %11, label %12, label %18

12:                                               ; preds = %5
  %13 = load i32, ptr @evthread_lock_debugging_enabled_, align 4
  %14 = icmp ne i32 %13, 0
  br i1 %14, label %15, label %18

15:                                               ; preds = %12
  br label %16

16:                                               ; preds = %15
  br label %17

17:                                               ; preds = %16
  br label %18

18:                                               ; preds = %17, %12, %5
  br label %19

19:                                               ; preds = %18
  br label %20

20:                                               ; preds = %19
  br label %21

21:                                               ; preds = %20
  %22 = load ptr, ptr %4, align 8
  %23 = load ptr, ptr %22, align 8
  %24 = icmp ne ptr %23, null
  br i1 %24, label %33, label %25

25:                                               ; preds = %21
  %26 = load ptr, ptr %3, align 8
  %27 = load ptr, ptr %4, align 8
  store ptr %26, ptr %27, align 8
  %28 = load ptr, ptr %3, align 8
  %29 = load ptr, ptr %3, align 8
  %30 = getelementptr inbounds nuw %struct.request, ptr %29, i32 0, i32 8
  store ptr %28, ptr %30, align 8
  %31 = load ptr, ptr %3, align 8
  %32 = getelementptr inbounds nuw %struct.request, ptr %31, i32 0, i32 7
  store ptr %28, ptr %32, align 8
  br label %53

33:                                               ; preds = %21
  %34 = load ptr, ptr %4, align 8
  %35 = load ptr, ptr %34, align 8
  %36 = getelementptr inbounds nuw %struct.request, ptr %35, i32 0, i32 8
  %37 = load ptr, ptr %36, align 8
  %38 = load ptr, ptr %3, align 8
  %39 = getelementptr inbounds nuw %struct.request, ptr %38, i32 0, i32 8
  store ptr %37, ptr %39, align 8
  %40 = load ptr, ptr %3, align 8
  %41 = load ptr, ptr %3, align 8
  %42 = getelementptr inbounds nuw %struct.request, ptr %41, i32 0, i32 8
  %43 = load ptr, ptr %42, align 8
  %44 = getelementptr inbounds nuw %struct.request, ptr %43, i32 0, i32 7
  store ptr %40, ptr %44, align 8
  %45 = load ptr, ptr %4, align 8
  %46 = load ptr, ptr %45, align 8
  %47 = load ptr, ptr %3, align 8
  %48 = getelementptr inbounds nuw %struct.request, ptr %47, i32 0, i32 7
  store ptr %46, ptr %48, align 8
  %49 = load ptr, ptr %3, align 8
  %50 = load ptr, ptr %4, align 8
  %51 = load ptr, ptr %50, align 8
  %52 = getelementptr inbounds nuw %struct.request, ptr %51, i32 0, i32 8
  store ptr %49, ptr %52, align 8
  br label %53

53:                                               ; preds = %33, %25
  ret void
}

; Function Attrs: nounwind uwtable
define internal void @evdns_request_remove(ptr noundef %0, ptr noundef %1) #0 {
  %3 = alloca ptr, align 8
  %4 = alloca ptr, align 8
  store ptr %0, ptr %3, align 8
  store ptr %1, ptr %4, align 8
  br label %5

5:                                                ; preds = %2
  %6 = load ptr, ptr %3, align 8
  %7 = getelementptr inbounds nuw %struct.request, ptr %6, i32 0, i32 13
  %8 = load ptr, ptr %7, align 8
  %9 = getelementptr inbounds nuw %struct.evdns_base, ptr %8, i32 0, i32 30
  %10 = load ptr, ptr %9, align 8
  %11 = icmp ne ptr %10, null
  br i1 %11, label %12, label %18

12:                                               ; preds = %5
  %13 = load i32, ptr @evthread_lock_debugging_enabled_, align 4
  %14 = icmp ne i32 %13, 0
  br i1 %14, label %15, label %18

15:                                               ; preds = %12
  br label %16

16:                                               ; preds = %15
  br label %17

17:                                               ; preds = %16
  br label %18

18:                                               ; preds = %17, %12, %5
  br label %19

19:                                               ; preds = %18
  br label %20

20:                                               ; preds = %19
  br label %21

21:                                               ; preds = %20
  %22 = load ptr, ptr %3, align 8
  %23 = getelementptr inbounds nuw %struct.request, ptr %22, i32 0, i32 7
  %24 = load ptr, ptr %23, align 8
  %25 = load ptr, ptr %3, align 8
  %26 = icmp eq ptr %24, %25
  br i1 %26, label %27, label %29

27:                                               ; preds = %21
  %28 = load ptr, ptr %4, align 8
  store ptr null, ptr %28, align 8
  br label %54

29:                                               ; preds = %21
  %30 = load ptr, ptr %3, align 8
  %31 = getelementptr inbounds nuw %struct.request, ptr %30, i32 0, i32 8
  %32 = load ptr, ptr %31, align 8
  %33 = load ptr, ptr %3, align 8
  %34 = getelementptr inbounds nuw %struct.request, ptr %33, i32 0, i32 7
  %35 = load ptr, ptr %34, align 8
  %36 = getelementptr inbounds nuw %struct.request, ptr %35, i32 0, i32 8
  store ptr %32, ptr %36, align 8
  %37 = load ptr, ptr %3, align 8
  %38 = getelementptr inbounds nuw %struct.request, ptr %37, i32 0, i32 7
  %39 = load ptr, ptr %38, align 8
  %40 = load ptr, ptr %3, align 8
  %41 = getelementptr inbounds nuw %struct.request, ptr %40, i32 0, i32 8
  %42 = load ptr, ptr %41, align 8
  %43 = getelementptr inbounds nuw %struct.request, ptr %42, i32 0, i32 7
  store ptr %39, ptr %43, align 8
  %44 = load ptr, ptr %4, align 8
  %45 = load ptr, ptr %44, align 8
  %46 = load ptr, ptr %3, align 8
  %47 = icmp eq ptr %45, %46
  br i1 %47, label %48, label %53

48:                                               ; preds = %29
  %49 = load ptr, ptr %3, align 8
  %50 = getelementptr inbounds nuw %struct.request, ptr %49, i32 0, i32 7
  %51 = load ptr, ptr %50, align 8
  %52 = load ptr, ptr %4, align 8
  store ptr %51, ptr %52, align 8
  br label %53

53:                                               ; preds = %48, %29
  br label %54

54:                                               ; preds = %53, %27
  %55 = load ptr, ptr %3, align 8
  %56 = getelementptr inbounds nuw %struct.request, ptr %55, i32 0, i32 8
  store ptr null, ptr %56, align 8
  %57 = load ptr, ptr %3, align 8
  %58 = getelementptr inbounds nuw %struct.request, ptr %57, i32 0, i32 7
  store ptr null, ptr %58, align 8
  ret void
}

; Function Attrs: nounwind uwtable
define internal i32 @evdns_base_set_max_requests_inflight(ptr noundef %0, i32 noundef %1) #0 {
  %3 = alloca i32, align 4
  %4 = alloca ptr, align 8
  %5 = alloca i32, align 4
  %6 = alloca i32, align 4
  %7 = alloca i32, align 4
  %8 = alloca ptr, align 8
  %9 = alloca ptr, align 8
  %10 = alloca ptr, align 8
  %11 = alloca i32, align 4
  %12 = alloca i32, align 4
  store ptr %0, ptr %4, align 8
  store i32 %1, ptr %5, align 4
  call void @llvm.lifetime.start.p0(i64 4, ptr %6) #10
  %13 = load ptr, ptr %4, align 8
  %14 = getelementptr inbounds nuw %struct.evdns_base, ptr %13, i32 0, i32 3
  %15 = load i32, ptr %14, align 8
  store i32 %15, ptr %6, align 4
  call void @llvm.lifetime.start.p0(i64 4, ptr %7) #10
  call void @llvm.lifetime.start.p0(i64 8, ptr %8) #10
  %16 = load ptr, ptr %4, align 8
  %17 = getelementptr inbounds nuw %struct.evdns_base, ptr %16, i32 0, i32 0
  %18 = load ptr, ptr %17, align 8
  store ptr %18, ptr %8, align 8
  call void @llvm.lifetime.start.p0(i64 8, ptr %9) #10
  call void @llvm.lifetime.start.p0(i64 8, ptr %10) #10
  call void @llvm.lifetime.start.p0(i64 4, ptr %11) #10
  br label %19

19:                                               ; preds = %2
  %20 = load ptr, ptr %4, align 8
  %21 = getelementptr inbounds nuw %struct.evdns_base, ptr %20, i32 0, i32 30
  %22 = load ptr, ptr %21, align 8
  %23 = icmp ne ptr %22, null
  br i1 %23, label %24, label %31

24:                                               ; preds = %19
  %25 = load i32, ptr @evthread_lock_debugging_enabled_, align 4
  %26 = icmp ne i32 %25, 0
  br i1 %26, label %27, label %31

27:                                               ; preds = %24
  br label %28

28:                                               ; preds = %27
  br label %29

29:                                               ; preds = %28
  br label %30

30:                                               ; preds = %29
  br label %31

31:                                               ; preds = %30, %24, %19
  br label %32

32:                                               ; preds = %31
  br label %33

33:                                               ; preds = %32
  %34 = load i32, ptr %5, align 4
  %35 = icmp slt i32 %34, 1
  br i1 %35, label %36, label %37

36:                                               ; preds = %33
  store i32 1, ptr %5, align 4
  br label %37

37:                                               ; preds = %36, %33
  %38 = load i32, ptr %5, align 4
  %39 = add nsw i32 %38, 4
  %40 = sdiv i32 %39, 5
  store i32 %40, ptr %7, align 4
  br label %41

41:                                               ; preds = %37
  br label %42

42:                                               ; preds = %41
  br label %43

43:                                               ; preds = %42
  %44 = load i32, ptr %7, align 4
  %45 = sext i32 %44 to i64
  %46 = call ptr @event_mm_calloc_(i64 noundef %45, i64 noundef 8)
  store ptr %46, ptr %9, align 8
  %47 = load ptr, ptr %9, align 8
  %48 = icmp ne ptr %47, null
  br i1 %48, label %50, label %49

49:                                               ; preds = %43
  store i32 -1, ptr %3, align 4
  store i32 1, ptr %12, align 4
  br label %103

50:                                               ; preds = %43
  %51 = load ptr, ptr %8, align 8
  %52 = icmp ne ptr %51, null
  br i1 %52, label %53, label %93

53:                                               ; preds = %50
  store i32 0, ptr %11, align 4
  br label %54

54:                                               ; preds = %88, %53
  %55 = load i32, ptr %11, align 4
  %56 = load i32, ptr %6, align 4
  %57 = icmp slt i32 %55, %56
  br i1 %57, label %58, label %91

58:                                               ; preds = %54
  br label %59

59:                                               ; preds = %66, %58
  %60 = load ptr, ptr %8, align 8
  %61 = load i32, ptr %11, align 4
  %62 = sext i32 %61 to i64
  %63 = getelementptr inbounds ptr, ptr %60, i64 %62
  %64 = load ptr, ptr %63, align 8
  %65 = icmp ne ptr %64, null
  br i1 %65, label %66, label %87

66:                                               ; preds = %59
  %67 = load ptr, ptr %8, align 8
  %68 = load i32, ptr %11, align 4
  %69 = sext i32 %68 to i64
  %70 = getelementptr inbounds ptr, ptr %67, i64 %69
  %71 = load ptr, ptr %70, align 8
  store ptr %71, ptr %10, align 8
  %72 = load ptr, ptr %10, align 8
  %73 = load ptr, ptr %8, align 8
  %74 = load i32, ptr %11, align 4
  %75 = sext i32 %74 to i64
  %76 = getelementptr inbounds ptr, ptr %73, i64 %75
  call void @evdns_request_remove(ptr noundef %72, ptr noundef %76)
  %77 = load ptr, ptr %10, align 8
  %78 = load ptr, ptr %9, align 8
  %79 = load ptr, ptr %10, align 8
  %80 = getelementptr inbounds nuw %struct.request, ptr %79, i32 0, i32 10
  %81 = load i16, ptr %80, align 8
  %82 = zext i16 %81 to i32
  %83 = load i32, ptr %7, align 4
  %84 = srem i32 %82, %83
  %85 = sext i32 %84 to i64
  %86 = getelementptr inbounds ptr, ptr %78, i64 %85
  call void @evdns_request_insert(ptr noundef %77, ptr noundef %86)
  br label %59, !llvm.loop !21

87:                                               ; preds = %59
  br label %88

88:                                               ; preds = %87
  %89 = load i32, ptr %11, align 4
  %90 = add nsw i32 %89, 1
  store i32 %90, ptr %11, align 4
  br label %54, !llvm.loop !22

91:                                               ; preds = %54
  %92 = load ptr, ptr %8, align 8
  call void @event_mm_free_(ptr noundef %92)
  br label %93

93:                                               ; preds = %91, %50
  %94 = load ptr, ptr %9, align 8
  %95 = load ptr, ptr %4, align 8
  %96 = getelementptr inbounds nuw %struct.evdns_base, ptr %95, i32 0, i32 0
  store ptr %94, ptr %96, align 8
  %97 = load i32, ptr %7, align 4
  %98 = load ptr, ptr %4, align 8
  %99 = getelementptr inbounds nuw %struct.evdns_base, ptr %98, i32 0, i32 3
  store i32 %97, ptr %99, align 8
  %100 = load i32, ptr %5, align 4
  %101 = load ptr, ptr %4, align 8
  %102 = getelementptr inbounds nuw %struct.evdns_base, ptr %101, i32 0, i32 8
  store i32 %100, ptr %102, align 4
  store i32 0, ptr %3, align 4
  store i32 1, ptr %12, align 4
  br label %103

103:                                              ; preds = %93, %49
  call void @llvm.lifetime.end.p0(i64 4, ptr %11) #10
  call void @llvm.lifetime.end.p0(i64 8, ptr %10) #10
  call void @llvm.lifetime.end.p0(i64 8, ptr %9) #10
  call void @llvm.lifetime.end.p0(i64 8, ptr %8) #10
  call void @llvm.lifetime.end.p0(i64 4, ptr %7) #10
  call void @llvm.lifetime.end.p0(i64 4, ptr %6) #10
  %104 = load i32, ptr %3, align 4
  ret i32 %104
}