; Function Attrs: nounwind uwtable
define internal fastcc void @evdns_base_set_max_requests_inflight(ptr noundef captures(none) %0, i32 noundef range(i32 0, -1) %1) unnamed_addr #2 {
  %3 = getelementptr inbounds nuw i8, ptr %0, i64 24
  %4 = load i32, ptr %3, align 8
  %5 = load ptr, ptr %0, align 8
  %spec.store.select = tail call i32 @llvm.smax.i32(i32 %1, i32 1)
  %6 = add nuw nsw i32 %spec.store.select, 4
  %7 = udiv i32 %6, 5
  %8 = zext nneg i32 %7 to i64
  %9 = tail call ptr @event_mm_calloc_(i64 noundef %8, i64 noundef 8) #21
  %.not = icmp eq ptr %9, null
  br i1 %.not, label %45, label %10

10:                                               ; preds = %2
  %.not34 = icmp eq ptr %5, null
  br i1 %.not34, label %43, label %.preheader36

.preheader36:                                     ; preds = %10
  %11 = icmp sgt i32 %4, 0
  br i1 %11, label %.preheader.preheader, label %._crit_edge39

.preheader.preheader:                             ; preds = %.preheader36
  %wide.trip.count = zext nneg i32 %4 to i64
  br label %.preheader

.preheader:                                       ; preds = %.preheader.preheader, %._crit_edge
  %indvars.iv = phi i64 [ 0, %.preheader.preheader ], [ %indvars.iv.next, %._crit_edge ]
  %12 = getelementptr inbounds nuw ptr, ptr %5, i64 %indvars.iv
  %13 = load ptr, ptr %12, align 8
  %.not3537 = icmp eq ptr %13, null
  br i1 %.not3537, label %._crit_edge, label %.lr.ph

.lr.ph:                                           ; preds = %.preheader, %evdns_request_insert.exit
  %14 = phi ptr [ %42, %evdns_request_insert.exit ], [ %13, %.preheader ]
  %15 = getelementptr inbounds nuw i8, ptr %14, i64 32
  %16 = load ptr, ptr %15, align 8
  %17 = icmp eq ptr %16, %14
  br i1 %17, label %.sink.split.i, label %18

18:                                               ; preds = %.lr.ph
  %19 = getelementptr inbounds nuw i8, ptr %14, i64 40
  %20 = load ptr, ptr %19, align 8
  %21 = getelementptr inbounds nuw i8, ptr %16, i64 40
  store ptr %20, ptr %21, align 8
  %22 = load ptr, ptr %15, align 8
  %23 = getelementptr inbounds nuw i8, ptr %20, i64 32
  store ptr %22, ptr %23, align 8
  %24 = load ptr, ptr %12, align 8
  %25 = icmp eq ptr %24, %14
  br i1 %25, label %.sink.split.i, label %evdns_request_remove.exit

.sink.split.i:                                    ; preds = %18, %.lr.ph
  %.sink.i = phi ptr [ null, %.lr.ph ], [ %22, %18 ]
  store ptr %.sink.i, ptr %12, align 8
  br label %evdns_request_remove.exit

evdns_request_remove.exit:                        ; preds = %18, %.sink.split.i
  tail call void @llvm.memset.p0.i64(ptr noundef nonnull align 8 dereferenceable(16) %15, i8 0, i64 16, i1 false)
  %26 = getelementptr inbounds nuw i8, ptr %14, i64 168
  %27 = load i16, ptr %26, align 8
  %28 = zext i16 %27 to i32
  %29 = urem i32 %28, %7
  %30 = zext nneg i32 %29 to i64
  %31 = getelementptr inbounds nuw ptr, ptr %9, i64 %30
  %32 = load ptr, ptr %31, align 8
  %.not.i = icmp eq ptr %32, null
  br i1 %.not.i, label %33, label %35

33:                                               ; preds = %evdns_request_remove.exit
  store ptr %14, ptr %31, align 8
  %34 = getelementptr inbounds nuw i8, ptr %14, i64 40
  store ptr %14, ptr %34, align 8
  store ptr %14, ptr %15, align 8
  br label %evdns_request_insert.exit

35:                                               ; preds = %evdns_request_remove.exit
  %36 = getelementptr inbounds nuw i8, ptr %32, i64 40
  %37 = load ptr, ptr %36, align 8
  %38 = getelementptr inbounds nuw i8, ptr %14, i64 40
  store ptr %37, ptr %38, align 8
  %39 = getelementptr inbounds nuw i8, ptr %37, i64 32
  store ptr %14, ptr %39, align 8
  %40 = load ptr, ptr %31, align 8
  store ptr %40, ptr %15, align 8
  %41 = getelementptr inbounds nuw i8, ptr %40, i64 40
  store ptr %14, ptr %41, align 8
  br label %evdns_request_insert.exit

evdns_request_insert.exit:                        ; preds = %33, %35
  %42 = load ptr, ptr %12, align 8
  %.not35 = icmp eq ptr %42, null
  br i1 %.not35, label %._crit_edge, label %.lr.ph, !llvm.loop !29

._crit_edge:                                      ; preds = %evdns_request_insert.exit, %.preheader
  %indvars.iv.next = add nuw nsw i64 %indvars.iv, 1
  %exitcond.not = icmp eq i64 %indvars.iv.next, %wide.trip.count
  br i1 %exitcond.not, label %._crit_edge39, label %.preheader, !llvm.loop !30

._crit_edge39:                                    ; preds = %._crit_edge, %.preheader36
  tail call void @event_mm_free_(ptr noundef nonnull %5) #21
  br label %43

43:                                               ; preds = %._crit_edge39, %10
  store ptr %9, ptr %0, align 8
  store i32 %7, ptr %3, align 8
  %44 = getelementptr inbounds nuw i8, ptr %0, i64 52
  store i32 %spec.store.select, ptr %44, align 4
  br label %45

45:                                               ; preds = %2, %43
  ret void
}